; Function Attrs: mustprogress uwtable
define noundef zeroext i1 @_ZNK6casadi11FmuFunction16has_jac_sparsityExx(ptr nocapture noundef nonnull readonly align 8 dereferenceable(1752) %0, i64 noundef %1, i64 noundef %2) unnamed_addr #3 align 2 {
  %4 = getelementptr inbounds i8, ptr %0, i64 1336
  %5 = getelementptr inbounds i8, ptr %0, i64 1344
  %6 = load ptr, ptr %5, align 8
  %7 = load ptr, ptr %4, align 8
  %8 = ptrtoint ptr %6 to i64
  %9 = ptrtoint ptr %7 to i64
  %10 = sub i64 %8, %9
  %11 = sdiv exact i64 %10, 56
  %.not.i.i = icmp ugt i64 %11, %1
  br i1 %.not.i.i, label %_ZNKSt6vectorIN6casadi12OutputStructESaIS1_EE2atEm.exit, label %12

12:                                               ; preds = %3
  tail call void (ptr, ...) @_ZSt24__throw_out_of_range_fmtPKcz(ptr noundef nonnull @.str.215, i64 noundef %1, i64 noundef %11) #23
  unreachable

_ZNKSt6vectorIN6casadi12OutputStructESaIS1_EE2atEm.exit: ; preds = %3
  %13 = getelementptr inbounds %"struct.casadi::OutputStruct", ptr %7, i64 %1
  %14 = load i32, ptr %13, align 8
  switch i32 %14, label %37 [
    i32 0, label %15
    i32 2, label %25
  ]

15:                                               ; preds = %_ZNKSt6vectorIN6casadi12OutputStructESaIS1_EE2atEm.exit
  %16 = getelementptr inbounds i8, ptr %0, i64 1312
  %17 = getelementptr inbounds i8, ptr %0, i64 1320
  %18 = load ptr, ptr %17, align 8
  %19 = load ptr, ptr %16, align 8
  %20 = ptrtoint ptr %18 to i64
  %21 = ptrtoint ptr %19 to i64
  %22 = sub i64 %20, %21
  %23 = ashr exact i64 %22, 4
  %.not.i.i7 = icmp ugt i64 %23, %2
  br i1 %.not.i.i7, label %.sink.split, label %24

24:                                               ; preds = %15
  tail call void (ptr, ...) @_ZSt24__throw_out_of_range_fmtPKcz(ptr noundef nonnull @.str.215, i64 noundef %2, i64 noundef %23) #23
  unreachable

25:                                               ; preds = %_ZNKSt6vectorIN6casadi12OutputStructESaIS1_EE2atEm.exit
  %26 = getelementptr inbounds i8, ptr %0, i64 1312
  %27 = getelementptr inbounds i8, ptr %0, i64 1320
  %28 = load ptr, ptr %27, align 8
  %29 = load ptr, ptr %26, align 8
  %30 = ptrtoint ptr %28 to i64
  %31 = ptrtoint ptr %29 to i64
  %32 = sub i64 %30, %31
  %33 = ashr exact i64 %32, 4
  %.not.i.i12 = icmp ugt i64 %33, %2
  br i1 %.not.i.i12, label %.sink.split, label %34

34:                                               ; preds = %25
  tail call void (ptr, ...) @_ZSt24__throw_out_of_range_fmtPKcz(ptr noundef nonnull @.str.215, i64 noundef %2, i64 noundef %33) #23
  unreachable

.sink.split:                                      ; preds = %25, %15
  %.sink = phi ptr [ %19, %15 ], [ %29, %25 ]
  %35 = getelementptr inbounds %"struct.casadi::InputStruct", ptr %.sink, i64 %2
  %36 = load i32, ptr %35, align 8
  %switch.and16 = and i32 %36, -3
  %switch.selectcmp17 = icmp eq i32 %switch.and16, 0
  br label %37

37:                                               ; preds = %.sink.split, %_ZNKSt6vectorIN6casadi12OutputStructESaIS1_EE2atEm.exit
  %.0 = phi i1 [ false, %_ZNKSt6vectorIN6casadi12OutputStructESaIS1_EE2atEm.exit ], [ %switch.selectcmp17, %.sink.split ]
  ret i1 %.0
}